; Function Attrs: mustprogress nounwind uwtable
define void @_ZN7glslang14TPoolAllocator3popEv(ptr nocapture noundef nonnull align 8 dereferenceable(96) %0) local_unnamed_addr #0 align 2 {
  %2 = getelementptr inbounds i8, ptr %0, i64 56
  %3 = getelementptr inbounds i8, ptr %0, i64 64
  %4 = load ptr, ptr %3, align 8
  %5 = load ptr, ptr %2, align 8
  %6 = icmp eq ptr %4, %5
  br i1 %6, label %29, label %7

7:                                                ; preds = %1
  %8 = getelementptr inbounds i8, ptr %4, i64 -16
  %9 = getelementptr inbounds i8, ptr %4, i64 -8
  %10 = load ptr, ptr %9, align 8
  %11 = load i64, ptr %8, align 8
  %12 = getelementptr inbounds i8, ptr %0, i64 32
  store i64 %11, ptr %12, align 8
  %13 = getelementptr inbounds i8, ptr %0, i64 48
  %14 = load ptr, ptr %13, align 8
  %.not4 = icmp eq ptr %14, %10
  br i1 %.not4, label %._crit_edge, label %.lr.ph

.lr.ph:                                           ; preds = %7
  %15 = getelementptr inbounds i8, ptr %0, i64 40
  br label %16

16:                                               ; preds = %.lr.ph, %26
  %17 = phi ptr [ %14, %.lr.ph ], [ %18, %26 ]
  %18 = load ptr, ptr %17, align 8
  %19 = getelementptr inbounds i8, ptr %17, i64 8
  %20 = load i64, ptr %19, align 8
  %21 = icmp ugt i64 %20, 1
  br i1 %21, label %22, label %23

22:                                               ; preds = %16
  tail call void @_ZdaPv(ptr noundef nonnull %17) #13
  br label %26

23:                                               ; preds = %16
  %24 = load ptr, ptr %15, align 8
  store ptr %24, ptr %17, align 8
  %25 = load ptr, ptr %13, align 8
  store ptr %25, ptr %15, align 8
  br label %26

26:                                               ; preds = %22, %23
  store ptr %18, ptr %13, align 8
  %.not = icmp eq ptr %18, %10
  br i1 %.not, label %._crit_edge.loopexit, label %16, !llvm.loop !9

._crit_edge.loopexit:                             ; preds = %26
  %.pre = load ptr, ptr %3, align 8
  br label %._crit_edge

._crit_edge:                                      ; preds = %._crit_edge.loopexit, %7
  %27 = phi ptr [ %.pre, %._crit_edge.loopexit ], [ %4, %7 ]
  %28 = getelementptr inbounds i8, ptr %27, i64 -16
  store ptr %28, ptr %3, align 8
  br label %29

29:                                               ; preds = %1, %._crit_edge
  ret void
}